target datalayout = "e-m:e-p270:32:32-p271:32:32-p272:64:64-i64:64-i128:128-f80:128-n8:16:32:64-S128"
target triple = "x86_64-pc-linux-gnu"

%struct._generic_N_Vector = type { ptr, ptr, ptr }
%struct._N_VectorContent_Serial = type { i64, i32, ptr }

@stderr = external global ptr, align 8
@.str.34 = private unnamed_addr constant [47 x i8] c"\0ASUNDIALS_ERROR: check_ans failed - ewt <= 0\0A\0A\00", align 1
@stdout = external global ptr, align 8
@.str.35 = private unnamed_addr constant [40 x i8] c"\0ASUNDIALS_WARNING: check_ans error=%g\0A\0A\00", align 1

; Function Attrs: nounwind uwtable
define internal void @analytical_solution(double noundef %0, ptr noundef %1, ptr noundef %2) #0 {
  %4 = alloca double, align 8
  %5 = alloca ptr, align 8
  %6 = alloca ptr, align 8
  store double %0, ptr %4, align 8, !tbaa !4
  store ptr %1, ptr %5, align 8, !tbaa !10
  store ptr %2, ptr %6, align 8, !tbaa !10
  %7 = load double, ptr %4, align 8, !tbaa !4
  %8 = call double @exp(double noundef %7) #5, !tbaa !16
  %9 = load ptr, ptr %5, align 8, !tbaa !10
  %10 = getelementptr inbounds nuw %struct._generic_N_Vector, ptr %9, i32 0, i32 0
  %11 = load ptr, ptr %10, align 8, !tbaa !20
  %12 = getelementptr inbounds nuw %struct._N_VectorContent_Serial, ptr %11, i32 0, i32 2
  %13 = load ptr, ptr %12, align 8, !tbaa !23
  %14 = getelementptr inbounds double, ptr %13, i64 0
  store double %8, ptr %14, align 8, !tbaa !4
  %15 = load double, ptr %4, align 8, !tbaa !4
  %16 = call double @exp(double noundef %15) #5, !tbaa !16
  %17 = load double, ptr %4, align 8, !tbaa !4
  %18 = fsub double %17, 2.000000e+00
  %19 = fdiv double %16, %18
  %20 = load ptr, ptr %5, align 8, !tbaa !10
  %21 = getelementptr inbounds nuw %struct._generic_N_Vector, ptr %20, i32 0, i32 0
  %22 = load ptr, ptr %21, align 8, !tbaa !20
  %23 = getelementptr inbounds nuw %struct._N_VectorContent_Serial, ptr %22, i32 0, i32 2
  %24 = load ptr, ptr %23, align 8, !tbaa !23
  %25 = getelementptr inbounds double, ptr %24, i64 1
  store double %19, ptr %25, align 8, !tbaa !4
  %26 = load double, ptr %4, align 8, !tbaa !4
  %27 = call double @exp(double noundef %26) #5, !tbaa !16
  %28 = load ptr, ptr %6, align 8, !tbaa !10
  %29 = getelementptr inbounds nuw %struct._generic_N_Vector, ptr %28, i32 0, i32 0
  %30 = load ptr, ptr %29, align 8, !tbaa !20
  %31 = getelementptr inbounds nuw %struct._N_VectorContent_Serial, ptr %30, i32 0, i32 2
  %32 = load ptr, ptr %31, align 8, !tbaa !23
  %33 = getelementptr inbounds double, ptr %32, i64 0
  store double %27, ptr %33, align 8, !tbaa !4
  %34 = load double, ptr %4, align 8, !tbaa !4
  %35 = call double @exp(double noundef %34) #5, !tbaa !16
  %36 = load double, ptr %4, align 8, !tbaa !4
  %37 = fsub double %36, 2.000000e+00
  %38 = fdiv double %35, %37
  %39 = load double, ptr %4, align 8, !tbaa !4
  %40 = call double @exp(double noundef %39) #5, !tbaa !16
  %41 = load double, ptr %4, align 8, !tbaa !4
  %42 = fsub double %41, 2.000000e+00
  %43 = fdiv double %40, %42
  %44 = load double, ptr %4, align 8, !tbaa !4
  %45 = fsub double %44, 2.000000e+00
  %46 = fdiv double %43, %45
  %47 = fsub double %38, %46
  %48 = load ptr, ptr %6, align 8, !tbaa !10
  %49 = getelementptr inbounds nuw %struct._generic_N_Vector, ptr %48, i32 0, i32 0
  %50 = load ptr, ptr %49, align 8, !tbaa !20
  %51 = getelementptr inbounds nuw %struct._N_VectorContent_Serial, ptr %50, i32 0, i32 2
  %52 = load ptr, ptr %51, align 8, !tbaa !23
  %53 = getelementptr inbounds double, ptr %52, i64 1
  store double %47, ptr %53, align 8, !tbaa !4
  ret void
}

; Function Attrs: nounwind uwtable
define internal i32 @check_ans(ptr noundef %0, double noundef %1, double noundef %2, double noundef %3) #0 {
  %5 = alloca i32, align 4
  %6 = alloca ptr, align 8
  %7 = alloca double, align 8
  %8 = alloca double, align 8
  %9 = alloca double, align 8
  %10 = alloca i32, align 4
  %11 = alloca ptr, align 8
  %12 = alloca ptr, align 8
  %13 = alloca ptr, align 8
  %14 = alloca double, align 8
  %15 = alloca double, align 8
  %16 = alloca i32, align 4
  store ptr %0, ptr %6, align 8, !tbaa !10
  store double %1, ptr %7, align 8, !tbaa !4
  store double %2, ptr %8, align 8, !tbaa !4
  store double %3, ptr %9, align 8, !tbaa !4
  call void @llvm.lifetime.start.p0(i64 4, ptr %10) #5
  store i32 0, ptr %10, align 4, !tbaa !16
  call void @llvm.lifetime.start.p0(i64 8, ptr %11) #5
  call void @llvm.lifetime.start.p0(i64 8, ptr %12) #5
  call void @llvm.lifetime.start.p0(i64 8, ptr %13) #5
  call void @llvm.lifetime.start.p0(i64 8, ptr %14) #5
  call void @llvm.lifetime.start.p0(i64 8, ptr %15) #5
  store double 1.000000e+00, ptr %15, align 8, !tbaa !4
  %17 = load ptr, ptr %6, align 8, !tbaa !10
  %18 = call ptr @N_VClone(ptr noundef %17)
  store ptr %18, ptr %11, align 8, !tbaa !10
  %19 = load ptr, ptr %6, align 8, !tbaa !10
  %20 = call ptr @N_VClone(ptr noundef %19)
  store ptr %20, ptr %12, align 8, !tbaa !10
  %21 = load ptr, ptr %6, align 8, !tbaa !10
  %22 = call ptr @N_VClone(ptr noundef %21)
  store ptr %22, ptr %13, align 8, !tbaa !10
  %23 = load double, ptr %7, align 8, !tbaa !4
  %24 = load ptr, ptr %11, align 8, !tbaa !10
  %25 = load ptr, ptr %13, align 8, !tbaa !10
  call void @analytical_solution(double noundef %23, ptr noundef %24, ptr noundef %25)
  %26 = load double, ptr %9, align 8, !tbaa !4
  %27 = load ptr, ptr %13, align 8, !tbaa !10
  call void @N_VConst(double noundef %26, ptr noundef %27)
  %28 = load ptr, ptr %11, align 8, !tbaa !10
  %29 = load ptr, ptr %12, align 8, !tbaa !10
  call void @N_VAbs(ptr noundef %28, ptr noundef %29)
  %30 = load double, ptr %8, align 8, !tbaa !4
  %31 = load ptr, ptr %12, align 8, !tbaa !10
  %32 = load ptr, ptr %13, align 8, !tbaa !10
  %33 = load ptr, ptr %12, align 8, !tbaa !10
  call void @N_VLinearSum(double noundef %30, ptr noundef %31, double noundef 1.000000e+01, ptr noundef %32, ptr noundef %33)
  %34 = load ptr, ptr %12, align 8, !tbaa !10
  %35 = call double @N_VMin(ptr noundef %34)
  %36 = fcmp ole double %35, 0.000000e+00
  br i1 %36, label %37, label %40

37:                                               ; preds = %4
  %38 = load ptr, ptr @stderr, align 8, !tbaa !26
  %39 = call i32 (ptr, ptr, ...) @fprintf(ptr noundef %38, ptr noundef @.str.34) #5
  store i32 -1, ptr %5, align 4
  store i32 1, ptr %16, align 4
  br label %67

40:                                               ; preds = %4
  %41 = load ptr, ptr %12, align 8, !tbaa !10
  %42 = load ptr, ptr %12, align 8, !tbaa !10
  call void @N_VInv(ptr noundef %41, ptr noundef %42)
  %43 = load double, ptr %15, align 8, !tbaa !4
  %44 = load ptr, ptr %6, align 8, !tbaa !10
  %45 = load double, ptr %15, align 8, !tbaa !4
  %46 = fneg double %45
  %47 = load ptr, ptr %11, align 8, !tbaa !10
  %48 = load ptr, ptr %11, align 8, !tbaa !10
  call void @N_VLinearSum(double noundef %43, ptr noundef %44, double noundef %46, ptr noundef %47, ptr noundef %48)
  %49 = load ptr, ptr %11, align 8, !tbaa !10
  %50 = load ptr, ptr %12, align 8, !tbaa !10
  %51 = call double @N_VWrmsNorm(ptr noundef %49, ptr noundef %50)
  store double %51, ptr %14, align 8, !tbaa !4
  %52 = load double, ptr %14, align 8, !tbaa !4
  %53 = load double, ptr %15, align 8, !tbaa !4
  %54 = fcmp olt double %52, %53
  %55 = select i1 %54, i32 0, i32 1
  store i32 %55, ptr %10, align 4, !tbaa !16
  %56 = load i32, ptr %10, align 4, !tbaa !16
  %57 = icmp ne i32 %56, 0
  br i1 %57, label %58, label %62

58:                                               ; preds = %40
  %59 = load ptr, ptr @stdout, align 8, !tbaa !26
  %60 = load double, ptr %14, align 8, !tbaa !4
  %61 = call i32 (ptr, ptr, ...) @fprintf(ptr noundef %59, ptr noundef @.str.35, double noundef %60) #5
  br label %62

62:                                               ; preds = %58, %40
  %63 = load ptr, ptr %11, align 8, !tbaa !10
  call void @N_VDestroy(ptr noundef %63)
  %64 = load ptr, ptr %13, align 8, !tbaa !10
  call void @N_VDestroy(ptr noundef %64)
  %65 = load ptr, ptr %12, align 8, !tbaa !10
  call void @N_VDestroy(ptr noundef %65)
  %66 = load i32, ptr %10, align 4, !tbaa !16
  store i32 %66, ptr %5, align 4
  store i32 1, ptr %16, align 4
  br label %67

67:                                               ; preds = %62, %37
  call void @llvm.lifetime.end.p0(i64 8, ptr %15) #5
  call void @llvm.lifetime.end.p0(i64 8, ptr %14) #5
  call void @llvm.lifetime.end.p0(i64 8, ptr %13) #5
  call void @llvm.lifetime.end.p0(i64 8, ptr %12) #5
  call void @llvm.lifetime.end.p0(i64 8, ptr %11) #5
  call void @llvm.lifetime.end.p0(i64 4, ptr %10) #5
  %68 = load i32, ptr %5, align 4
  ret i32 %68
}