; Function Attrs: nounwind uwtable
define internal fastcc range(i32 -1, 2) i32 @check_ans(ptr noundef %0, double noundef %1) unnamed_addr #0 {
  %3 = tail call ptr @N_VClone(ptr noundef %0) #9
  %4 = tail call ptr @N_VClone(ptr noundef %0) #9
  %5 = tail call ptr @N_VClone(ptr noundef %0) #9
  %.val = load ptr, ptr %3, align 8, !tbaa !13
  %.val32 = load ptr, ptr %5, align 8, !tbaa !13
  %6 = getelementptr i8, ptr %.val, i64 16
  %.val.val = load ptr, ptr %6, align 8, !tbaa !16
  %7 = getelementptr i8, ptr %.val32, i64 16
  %.val32.val = load ptr, ptr %7, align 8, !tbaa !16
  %8 = tail call double @exp(double noundef %1) #9, !tbaa !31
  store double %8, ptr %.val.val, align 8, !tbaa !4
  %9 = tail call double @exp(double noundef %1) #9, !tbaa !31
  %10 = fadd double %1, -2.000000e+00
  %11 = fdiv double %9, %10
  %12 = getelementptr inbounds nuw i8, ptr %.val.val, i64 8
  store double %11, ptr %12, align 8, !tbaa !4
  %13 = tail call double @exp(double noundef %1) #9, !tbaa !31
  store double %13, ptr %.val32.val, align 8, !tbaa !4
  %14 = tail call double @exp(double noundef %1) #9, !tbaa !31
  %15 = fdiv double %14, %10
  %16 = tail call double @exp(double noundef %1) #9, !tbaa !31
  %17 = fdiv double %16, %10
  %18 = fdiv double %17, %10
  %19 = fsub double %15, %18
  %20 = getelementptr inbounds nuw i8, ptr %.val32.val, i64 8
  store double %19, ptr %20, align 8, !tbaa !4
  tail call void @N_VConst(double noundef 1.000000e-09, ptr noundef nonnull %5) #9
  tail call void @N_VAbs(ptr noundef nonnull %3, ptr noundef %4) #9
  tail call void @N_VLinearSum(double noundef 1.000000e-04, ptr noundef %4, double noundef 1.000000e+01, ptr noundef nonnull %5, ptr noundef %4) #9
  %21 = tail call double @N_VMin(ptr noundef %4) #9
  %22 = fcmp ugt double %21, 0.000000e+00
  br i1 %22, label %26, label %23

23:                                               ; preds = %2
  %24 = load ptr, ptr @stderr, align 8, !tbaa !8
  %25 = tail call i64 @fwrite(ptr nonnull @.str.34, i64 46, i64 1, ptr %24) #11
  br label %34

26:                                               ; preds = %2
  tail call void @N_VInv(ptr noundef %4, ptr noundef %4) #9
  tail call void @N_VLinearSum(double noundef 1.000000e+00, ptr noundef %0, double noundef -1.000000e+00, ptr noundef nonnull %3, ptr noundef nonnull %3) #9
  %27 = tail call double @N_VWrmsNorm(ptr noundef nonnull %3, ptr noundef %4) #9
  %28 = fcmp uge double %27, 1.000000e+00
  %29 = zext i1 %28 to i32
  br i1 %28, label %30, label %33

30:                                               ; preds = %26
  %31 = load ptr, ptr @stdout, align 8, !tbaa !8
  %32 = tail call i32 (ptr, ptr, ...) @fprintf(ptr noundef %31, ptr noundef nonnull @.str.35, double noundef %27) #9
  br label %33

33:                                               ; preds = %30, %26
  tail call void @N_VDestroy(ptr noundef nonnull %3) #9
  tail call void @N_VDestroy(ptr noundef nonnull %5) #9
  tail call void @N_VDestroy(ptr noundef %4) #9
  br label %34

34:                                               ; preds = %33, %23
  %.0 = phi i32 [ -1, %23 ], [ %29, %33 ]
  ret i32 %.0
}